; ModuleID = 'source-C-CXX/10/150.c'
source_filename = "source-C-CXX/10/150.c"
target datalayout = "e-m:e-p270:32:32-p271:32:32-p272:64:64-i64:64-f80:128-n8:16:32:64-S128"
target triple = "x86_64-pc-linux-gnu"

@__const.main.a = private unnamed_addr constant [13 x i32] [i32 0, i32 31, i32 28, i32 31, i32 30, i32 31, i32 30, i32 31, i32 31, i32 30, i32 31, i32 30, i32 31], align 16
@.str = private unnamed_addr constant [7 x i8] c"%d%d%d\00", align 1
@.str.1 = private unnamed_addr constant [3 x i8] c"%d\00", align 1

; Function Attrs: nofree nounwind sspstrong uwtable
define dso_local i32 @main() local_unnamed_addr #0 {
  %1 = alloca i32, align 4
  %2 = alloca i32, align 4
  %3 = alloca i32, align 4
  %4 = bitcast i32* %1 to i8*
  call void @llvm.lifetime.start.p0i8(i64 4, i8* nonnull %4) #4
  %5 = bitcast i32* %2 to i8*
  call void @llvm.lifetime.start.p0i8(i64 4, i8* nonnull %5) #4
  %6 = bitcast i32* %3 to i8*
  call void @llvm.lifetime.start.p0i8(i64 4, i8* nonnull %6) #4
  %7 = call i32 (i8*, ...) @__isoc99_scanf(i8* getelementptr inbounds ([7 x i8], [7 x i8]* @.str, i64 0, i64 0), i32* nonnull %3, i32* nonnull %1, i32* nonnull %2)
  %8 = load i32, i32* %2, align 4, !tbaa !5
  %9 = load i32, i32* %1, align 4, !tbaa !5
  %10 = load i32, i32* %3, align 4
  %11 = and i32 %10, 3
  %12 = icmp eq i32 %11, 0
  %13 = srem i32 %10, 100
  %14 = icmp ne i32 %13, 0
  %15 = and i1 %12, %14
  %16 = srem i32 %10, 400
  %17 = icmp eq i32 %16, 0
  %18 = select i1 %15, i1 true, i1 %17
  %19 = zext i1 %18 to i32
  %20 = icmp sgt i32 %9, 1
  br i1 %20, label %21, label %108

21:                                               ; preds = %0
  %22 = zext i32 %9 to i64
  %23 = add nsw i64 %22, -1
  %24 = icmp ult i64 %23, 8
  br i1 %24, label %96, label %25

25:                                               ; preds = %21
  %26 = and i64 %23, -8
  %27 = or i64 %26, 1
  %28 = insertelement <4 x i32> <i32 poison, i32 0, i32 0, i32 0>, i32 %8, i32 0
  %29 = insertelement <4 x i32> poison, i32 %19, i32 0
  %30 = shufflevector <4 x i32> %29, <4 x i32> poison, <4 x i32> zeroinitializer
  %31 = insertelement <4 x i32> poison, i32 %19, i32 0
  %32 = shufflevector <4 x i32> %31, <4 x i32> poison, <4 x i32> zeroinitializer
  %33 = add nsw i64 %26, -8
  %34 = lshr exact i64 %33, 3
  %35 = add nuw nsw i64 %34, 1
  %36 = and i64 %35, 1
  %37 = icmp eq i64 %33, 0
  br i1 %37, label %72, label %38

38:                                               ; preds = %25
  %39 = and i64 %35, 4611686018427387902
  br label %40

40:                                               ; preds = %40, %38
  %41 = phi i64 [ 0, %38 ], [ %67, %40 ]
  %42 = phi <4 x i32> [ %28, %38 ], [ %65, %40 ]
  %43 = phi <4 x i32> [ zeroinitializer, %38 ], [ %66, %40 ]
  %44 = phi i64 [ %39, %38 ], [ %68, %40 ]
  %45 = or i64 %41, 1
  %46 = getelementptr inbounds [13 x i32], [13 x i32]* @__const.main.a, i64 0, i64 %45
  %47 = bitcast i32* %46 to <4 x i32>*
  %48 = load <4 x i32>, <4 x i32>* %47, align 4, !tbaa !5
  %49 = getelementptr inbounds i32, i32* %46, i64 4
  %50 = bitcast i32* %49 to <4 x i32>*
  %51 = load <4 x i32>, <4 x i32>* %50, align 4, !tbaa !5
  %52 = add <4 x i32> %48, %42
  %53 = add <4 x i32> %51, %43
  %54 = add <4 x i32> %52, %30
  %55 = add <4 x i32> %53, %32
  %56 = or i64 %41, 9
  %57 = getelementptr inbounds [13 x i32], [13 x i32]* @__const.main.a, i64 0, i64 %56
  %58 = bitcast i32* %57 to <4 x i32>*
  %59 = load <4 x i32>, <4 x i32>* %58, align 4, !tbaa !5
  %60 = getelementptr inbounds i32, i32* %57, i64 4
  %61 = bitcast i32* %60 to <4 x i32>*
  %62 = load <4 x i32>, <4 x i32>* %61, align 4, !tbaa !5
  %63 = add <4 x i32> %59, %54
  %64 = add <4 x i32> %62, %55
  %65 = add <4 x i32> %63, %30
  %66 = add <4 x i32> %64, %32
  %67 = add nuw i64 %41, 16
  %68 = add i64 %44, -2
  %69 = icmp eq i64 %68, 0
  br i1 %69, label %70, label %40, !llvm.loop !9

70:                                               ; preds = %40
  %71 = or i64 %67, 1
  br label %72

72:                                               ; preds = %70, %25
  %73 = phi <4 x i32> [ undef, %25 ], [ %65, %70 ]
  %74 = phi <4 x i32> [ undef, %25 ], [ %66, %70 ]
  %75 = phi i64 [ 1, %25 ], [ %71, %70 ]
  %76 = phi <4 x i32> [ %28, %25 ], [ %65, %70 ]
  %77 = phi <4 x i32> [ zeroinitializer, %25 ], [ %66, %70 ]
  %78 = icmp eq i64 %36, 0
  br i1 %78, label %90, label %79

79:                                               ; preds = %72
  %80 = getelementptr inbounds [13 x i32], [13 x i32]* @__const.main.a, i64 0, i64 %75
  %81 = getelementptr inbounds i32, i32* %80, i64 4
  %82 = bitcast i32* %81 to <4 x i32>*
  %83 = load <4 x i32>, <4 x i32>* %82, align 4, !tbaa !5
  %84 = add <4 x i32> %83, %77
  %85 = add <4 x i32> %84, %32
  %86 = bitcast i32* %80 to <4 x i32>*
  %87 = load <4 x i32>, <4 x i32>* %86, align 4, !tbaa !5
  %88 = add <4 x i32> %87, %76
  %89 = add <4 x i32> %88, %30
  br label %90

90:                                               ; preds = %72, %79
  %91 = phi <4 x i32> [ %73, %72 ], [ %89, %79 ]
  %92 = phi <4 x i32> [ %74, %72 ], [ %85, %79 ]
  %93 = add <4 x i32> %92, %91
  %94 = call i32 @llvm.vector.reduce.add.v4i32(<4 x i32> %93)
  %95 = icmp eq i64 %23, %26
  br i1 %95, label %108, label %96

96:                                               ; preds = %21, %90
  %97 = phi i64 [ 1, %21 ], [ %27, %90 ]
  %98 = phi i32 [ %8, %21 ], [ %94, %90 ]
  br label %99

99:                                               ; preds = %96, %99
  %100 = phi i64 [ %106, %99 ], [ %97, %96 ]
  %101 = phi i32 [ %105, %99 ], [ %98, %96 ]
  %102 = getelementptr inbounds [13 x i32], [13 x i32]* @__const.main.a, i64 0, i64 %100
  %103 = load i32, i32* %102, align 4, !tbaa !5
  %104 = add nsw i32 %103, %101
  %105 = add nsw i32 %104, %19
  %106 = add nuw nsw i64 %100, 1
  %107 = icmp eq i64 %106, %22
  br i1 %107, label %108, label %99, !llvm.loop !12

108:                                              ; preds = %99, %90, %0
  %109 = phi i32 [ %8, %0 ], [ %94, %90 ], [ %105, %99 ]
  %110 = call i32 (i8*, ...) @printf(i8* nonnull dereferenceable(1) getelementptr inbounds ([3 x i8], [3 x i8]* @.str.1, i64 0, i64 0), i32 %109)
  call void @llvm.lifetime.end.p0i8(i64 4, i8* nonnull %6) #4
  call void @llvm.lifetime.end.p0i8(i64 4, i8* nonnull %5) #4
  call void @llvm.lifetime.end.p0i8(i64 4, i8* nonnull %4) #4
  ret i32 0
}

; Function Attrs: argmemonly mustprogress nofree nosync nounwind willreturn
declare void @llvm.lifetime.start.p0i8(i64 immarg, i8* nocapture) #1

; Function Attrs: nofree nounwind
declare noundef i32 @__isoc99_scanf(i8* nocapture noundef readonly, ...) local_unnamed_addr #2

; Function Attrs: nofree nounwind
declare noundef i32 @printf(i8* nocapture noundef readonly, ...) local_unnamed_addr #2

; Function Attrs: argmemonly mustprogress nofree nosync nounwind willreturn
declare void @llvm.lifetime.end.p0i8(i64 immarg, i8* nocapture) #1

; Function Attrs: nofree nosync nounwind readnone willreturn
declare i32 @llvm.vector.reduce.add.v4i32(<4 x i32>) #3


!llvm.module.flags = !{!0, !1, !2, !3}
!llvm.ident = !{!4}

!0 = !{i32 1, !"wchar_size", i32 4}
!1 = !{i32 7, !"PIC Level", i32 2}
!2 = !{i32 7, !"PIE Level", i32 2}
!3 = !{i32 7, !"uwtable", i32 1}
!4 = !{!"clang version 13.0.0"}
!5 = !{!6, !6, i64 0}
!6 = !{!"int", !7, i64 0}
!7 = !{!"omnipotent char", !8, i64 0}
!8 = !{!"Simple C/C++ TBAA"}
!9 = distinct !{!9, !10, !11}
!10 = !{!"llvm.loop.mustprogress"}
!11 = !{!"llvm.loop.isvectorized", i32 1}
!12 = distinct !{!12, !10, !13, !11}
!13 = !{!"llvm.loop.unroll.runtime.disable"}
